; Function Attrs: mustprogress uwtable
define void @_ZN8proxygen10TraceEvent5startERKNS_15TimeUtilGenericINSt6chrono3_V212steady_clockEEE(ptr nocapture noundef nonnull align 8 dereferenceable(80) %this, ptr noundef nonnull align 8 dereferenceable(8) %tm) local_unnamed_addr #0 align 2 {
entry:
  %0 = load i8, ptr %this, align 8
  %1 = or i8 %0, 1
  store i8 %1, ptr %this, align 8
  %vtable = load ptr, ptr %tm, align 8
  %vfn = getelementptr inbounds i8, ptr %vtable, i64 16
  %2 = load ptr, ptr %vfn, align 8
  %call = tail call i64 %2(ptr noundef nonnull align 8 dereferenceable(8) %tm)
  %start_ = getelementptr inbounds i8, ptr %this, i64 16
  store i64 %call, ptr %start_, align 8
  ret void
}